; Function Attrs: mustprogress uwtable
define internal fastcc void @_ZL18display_statisticsv() unnamed_addr #6 personality ptr @__gxx_personality_v0 {
  %1 = alloca %class.statistics, align 8
  %2 = load ptr, ptr @_ZL17display_stats_mux, align 8, !tbaa !82
  %3 = tail call noundef i32 @pthread_mutex_lock(ptr noundef nonnull align 8 dereferenceable(40) %2) #23
  %.not.i.i = icmp eq i32 %3, 0
  br i1 %.not.i.i, label %_ZNSt10lock_guardISt5mutexEC2ERS0_.exit, label %4

4:                                                ; preds = %0
  tail call void @_ZSt20__throw_system_errori(i32 noundef %3) #26
  unreachable

_ZNSt10lock_guardISt5mutexEC2ERS0_.exit:          ; preds = %0
  %5 = load i8, ptr @g_display_statistics, align 1, !tbaa !81, !range !78, !noundef !79
  %6 = trunc nuw i8 %5 to i1
  %7 = load ptr, ptr @_ZL5g_opt, align 8
  %8 = icmp ne ptr %7, null
  %or.cond = select i1 %6, i1 %8, i1 false
  br i1 %or.cond, label %9, label %43

9:                                                ; preds = %_ZNSt10lock_guardISt5mutexEC2ERS0_.exit
  call void @llvm.lifetime.start.p0(i64 16, ptr nonnull %1) #23
  call void @llvm.memset.p0.i64(ptr noundef nonnull align 8 dereferenceable(16) %1, i8 0, i64 16, i1 false)
  %10 = load ptr, ptr %7, align 8, !tbaa !12
  %11 = getelementptr inbounds nuw i8, ptr %10, i64 16
  %12 = load ptr, ptr %11, align 8
  invoke void %12(ptr noundef nonnull align 8 dereferenceable(808) %7, ptr noundef nonnull align 8 dereferenceable(16) %1)
          to label %13 unwind label %37

13:                                               ; preds = %9
  %14 = invoke noundef nonnull align 8 dereferenceable(8) ptr @_ZNK10statistics7displayERSo(ptr noundef nonnull align 8 dereferenceable(16) %1, ptr noundef nonnull align 8 dereferenceable(8) @_ZSt4cout)
          to label %15 unwind label %37

15:                                               ; preds = %13
  %16 = call i64 @clock() #23
  %17 = invoke noundef nonnull align 8 dereferenceable(8) ptr @_ZSt16__ostream_insertIcSt11char_traitsIcEERSt13basic_ostreamIT_T0_ES6_PKS3_l(ptr noundef nonnull align 8 dereferenceable(8) @_ZSt4cout, ptr noundef nonnull @.str.8, i64 noundef 21)
          to label %_ZStlsISt11char_traitsIcEERSt13basic_ostreamIcT_ES5_PKc.exit unwind label %39

_ZStlsISt11char_traitsIcEERSt13basic_ostreamIcT_ES5_PKc.exit: ; preds = %15
  %18 = sitofp i64 %16 to double
  %19 = load double, ptr @_ZL12g_start_time, align 8, !tbaa !10
  %20 = fsub double %18, %19
  %21 = fdiv double %20, 1.000000e+06
  %22 = invoke noundef nonnull align 8 dereferenceable(8) ptr @_ZNSo9_M_insertIdEERSoT_(ptr noundef nonnull align 8 dereferenceable(8) @_ZSt4cout, double noundef %21)
          to label %_ZNSolsEd.exit unwind label %39

_ZNSolsEd.exit:                                   ; preds = %_ZStlsISt11char_traitsIcEERSt13basic_ostreamIcT_ES5_PKc.exit
  %23 = invoke noundef nonnull align 8 dereferenceable(8) ptr @_ZSt16__ostream_insertIcSt11char_traitsIcEERSt13basic_ostreamIT_T0_ES6_PKS3_l(ptr noundef nonnull align 8 dereferenceable(8) %22, ptr noundef nonnull @.str.9, i64 noundef 6)
          to label %_ZStlsISt11char_traitsIcEERSt13basic_ostreamIcT_ES5_PKc.exit5 unwind label %39

_ZStlsISt11char_traitsIcEERSt13basic_ostreamIcT_ES5_PKc.exit5: ; preds = %_ZNSolsEd.exit
  %24 = getelementptr inbounds nuw i8, ptr %1, i64 8
  %25 = load ptr, ptr %24, align 8, !tbaa !84
  %.not.i.i.i = icmp eq ptr %25, null
  br i1 %.not.i.i.i, label %_ZN6vectorISt4pairIPKcdELb0EjED2Ev.exit.i, label %26

26:                                               ; preds = %_ZStlsISt11char_traitsIcEERSt13basic_ostreamIcT_ES5_PKc.exit5
  %27 = getelementptr inbounds i8, ptr %25, i64 -8
  invoke void @_ZN6memory10deallocateEPv(ptr noundef nonnull %27)
          to label %_ZN6vectorISt4pairIPKcdELb0EjED2Ev.exit.i unwind label %28

28:                                               ; preds = %26
  %29 = landingpad { ptr, i32 }
          catch ptr null
  %30 = extractvalue { ptr, i32 } %29, 0
  call void @__clang_call_terminate(ptr %30) #22
  unreachable

_ZN6vectorISt4pairIPKcdELb0EjED2Ev.exit.i:        ; preds = %26, %_ZStlsISt11char_traitsIcEERSt13basic_ostreamIcT_ES5_PKc.exit5
  %31 = load ptr, ptr %1, align 8, !tbaa !87
  %.not.i.i1.i = icmp eq ptr %31, null
  br i1 %.not.i.i1.i, label %_ZN10statisticsD2Ev.exit, label %32

32:                                               ; preds = %_ZN6vectorISt4pairIPKcdELb0EjED2Ev.exit.i
  %33 = getelementptr inbounds i8, ptr %31, i64 -8
  invoke void @_ZN6memory10deallocateEPv(ptr noundef nonnull %33)
          to label %_ZN10statisticsD2Ev.exit unwind label %34

34:                                               ; preds = %32
  %35 = landingpad { ptr, i32 }
          catch ptr null
  %36 = extractvalue { ptr, i32 } %35, 0
  call void @__clang_call_terminate(ptr %36) #22
  unreachable

_ZN10statisticsD2Ev.exit:                         ; preds = %_ZN6vectorISt4pairIPKcdELb0EjED2Ev.exit.i, %32
  call void @llvm.lifetime.end.p0(i64 16, ptr nonnull %1) #23
  br label %43

37:                                               ; preds = %13, %9
  %38 = landingpad { ptr, i32 }
          cleanup
  br label %41

39:                                               ; preds = %_ZNSolsEd.exit, %_ZStlsISt11char_traitsIcEERSt13basic_ostreamIcT_ES5_PKc.exit, %15
  %40 = landingpad { ptr, i32 }
          cleanup
  br label %41

41:                                               ; preds = %39, %37
  %.pn = phi { ptr, i32 } [ %40, %39 ], [ %38, %37 ]
  call void @_ZN10statisticsD2Ev(ptr noundef nonnull align 8 dereferenceable(16) %1) #23
  call void @llvm.lifetime.end.p0(i64 16, ptr nonnull %1) #23
  %42 = call noundef i32 @pthread_mutex_unlock(ptr noundef nonnull align 8 dereferenceable(40) %2) #23
  resume { ptr, i32 } %.pn

43:                                               ; preds = %_ZN10statisticsD2Ev.exit, %_ZNSt10lock_guardISt5mutexEC2ERS0_.exit
  %44 = call noundef i32 @pthread_mutex_unlock(ptr noundef nonnull align 8 dereferenceable(40) %2) #23
  ret void
}